target datalayout = "e-m:e-p270:32:32-p271:32:32-p272:64:64-i64:64-i128:128-f80:128-n8:16:32:64-S128"
target triple = "x86_64-pc-linux-gnu"

%struct.rb_data_type_struct = type { ptr, %struct.anon, ptr, ptr, i64 }
%struct.anon = type { ptr, ptr, ptr, ptr, [1 x ptr] }

@ossl_x509_type = internal constant %struct.rb_data_type_struct { ptr @.str.34, %struct.anon { ptr null, ptr @ossl_x509_free, ptr null, ptr null, [1 x ptr] zeroinitializer }, ptr null, ptr null, i64 33 }, align 8
@eX509CertError = internal global i64 0, align 8
@rb_eRuntimeError = external global i64, align 8
@.str = private unnamed_addr constant [25 x i8] c"CERT wasn't initialized!\00", align 1

; Function Attrs: nounwind sspstrong uwtable
define internal i64 @ossl_x509_get_not_before(i64 noundef %0) #0 {
  %2 = alloca i64, align 8
  %3 = alloca ptr, align 8
  %4 = alloca ptr, align 8
  store i64 %0, ptr %2, align 8, !tbaa !11
  call void @llvm.lifetime.start.p0(i64 8, ptr %3) #15
  call void @llvm.lifetime.start.p0(i64 8, ptr %4) #15
  br label %5

5:                                                ; preds = %1
  %6 = load i64, ptr %2, align 8, !tbaa !11
  %7 = call ptr @rb_check_typeddata(i64 noundef %6, ptr noundef @ossl_x509_type)
  store ptr %7, ptr %3, align 8, !tbaa !6
  %8 = load ptr, ptr %3, align 8, !tbaa !6
  %9 = icmp ne ptr %8, null
  br i1 %9, label %12, label %10

10:                                               ; preds = %5
  %11 = load i64, ptr @rb_eRuntimeError, align 8, !tbaa !11
  call void (i64, ptr, ...) @ossl_raise(i64 noundef %11, ptr noundef @.str) #16
  unreachable

12:                                               ; preds = %5
  br label %13

13:                                               ; preds = %12
  br label %14

14:                                               ; preds = %13
  %15 = load ptr, ptr %3, align 8, !tbaa !6
  %16 = call ptr @X509_get0_notBefore(ptr noundef %15)
  store ptr %16, ptr %4, align 8, !tbaa !31
  %17 = icmp ne ptr %16, null
  br i1 %17, label %20, label %18

18:                                               ; preds = %14
  %19 = load i64, ptr @eX509CertError, align 8, !tbaa !11
  call void (i64, ptr, ...) @ossl_raise(i64 noundef %19, ptr noundef null) #16
  unreachable

20:                                               ; preds = %14
  %21 = load ptr, ptr %4, align 8, !tbaa !31
  %22 = call i64 @asn1time_to_time(ptr noundef %21)
  call void @llvm.lifetime.end.p0(i64 8, ptr %4) #15
  call void @llvm.lifetime.end.p0(i64 8, ptr %3) #15
  ret i64 %22
}